target datalayout = "e-m:e-p270:32:32-p271:32:32-p272:64:64-i64:64-i128:128-f80:128-n8:16:32:64-S128"
target triple = "x86_64-pc-linux-gnu"

%struct.FLAC__StreamMetadata = type { i32, i32, i32, %union.anon }
%union.anon = type { %struct.FLAC__StreamMetadata_CueSheet }
%struct.FLAC__StreamMetadata_CueSheet = type { [129 x i8], i64, i32, i32, ptr }
%struct.FLAC__StreamMetadata_VorbisComment = type { %struct.FLAC__StreamMetadata_VorbisComment_Entry, i32, ptr }
%struct.FLAC__StreamMetadata_VorbisComment_Entry = type { i32, ptr }
%struct.FLAC__StreamMetadata_Picture = type { i32, ptr, ptr, i32, i32, i32, i32, i32, ptr }
%struct.FLAC__StreamMetadata_CueSheet_Track = type { i64, i8, [13 x i8], i8, i8, ptr }
%struct.FLAC__StreamMetadata_Application = type { [4 x i8], ptr }
%struct.FLAC__StreamMetadata_SeekTable = type { i32, ptr }
%struct.FLAC__StreamMetadata_Unknown = type { ptr }

; Function Attrs: nounwind sspstrong uwtable
define internal void @cuesheet_track_array_delete_(ptr noundef %0, i32 noundef %1) #0 {
  %3 = alloca ptr, align 8
  %4 = alloca i32, align 4
  %5 = alloca i32, align 4
  store ptr %0, ptr %3, align 8, !tbaa !27
  store i32 %1, ptr %4, align 4, !tbaa !3
  call void @llvm.lifetime.start.p0(i64 4, ptr %5) #12
  store i32 0, ptr %5, align 4, !tbaa !3
  br label %6

6:                                                ; preds = %26, %2
  %7 = load i32, ptr %5, align 4, !tbaa !3
  %8 = load i32, ptr %4, align 4, !tbaa !3
  %9 = icmp ult i32 %7, %8
  br i1 %9, label %10, label %29

10:                                               ; preds = %6
  %11 = load ptr, ptr %3, align 8, !tbaa !27
  %12 = load i32, ptr %5, align 4, !tbaa !3
  %13 = zext i32 %12 to i64
  %14 = getelementptr inbounds nuw %struct.FLAC__StreamMetadata_CueSheet_Track, ptr %11, i64 %13
  %15 = getelementptr inbounds nuw %struct.FLAC__StreamMetadata_CueSheet_Track, ptr %14, i32 0, i32 5
  %16 = load ptr, ptr %15, align 8, !tbaa !33
  %17 = icmp ne ptr %16, null
  br i1 %17, label %18, label %25

18:                                               ; preds = %10
  %19 = load ptr, ptr %3, align 8, !tbaa !27
  %20 = load i32, ptr %5, align 4, !tbaa !3
  %21 = zext i32 %20 to i64
  %22 = getelementptr inbounds nuw %struct.FLAC__StreamMetadata_CueSheet_Track, ptr %19, i64 %21
  %23 = getelementptr inbounds nuw %struct.FLAC__StreamMetadata_CueSheet_Track, ptr %22, i32 0, i32 5
  %24 = load ptr, ptr %23, align 8, !tbaa !33
  call void @free(ptr noundef %24) #12
  br label %25

25:                                               ; preds = %18, %10
  br label %26

26:                                               ; preds = %25
  %27 = load i32, ptr %5, align 4, !tbaa !3
  %28 = add i32 %27, 1
  store i32 %28, ptr %5, align 4, !tbaa !3
  br label %6, !llvm.loop !34

29:                                               ; preds = %6
  %30 = load ptr, ptr %3, align 8, !tbaa !27
  call void @free(ptr noundef %30) #12
  call void @llvm.lifetime.end.p0(i64 4, ptr %5) #12
  ret void
}

; Function Attrs: nounwind sspstrong uwtable
define internal void @vorbiscomment_entry_array_delete_(ptr noundef %0, i32 noundef %1) #0 {
  %3 = alloca ptr, align 8
  %4 = alloca i32, align 4
  %5 = alloca i32, align 4
  store ptr %0, ptr %3, align 8, !tbaa !27
  store i32 %1, ptr %4, align 4, !tbaa !3
  call void @llvm.lifetime.start.p0(i64 4, ptr %5) #12
  store i32 0, ptr %5, align 4, !tbaa !3
  br label %6

6:                                                ; preds = %17, %2
  %7 = load i32, ptr %5, align 4, !tbaa !3
  %8 = load i32, ptr %4, align 4, !tbaa !3
  %9 = icmp ult i32 %7, %8
  br i1 %9, label %10, label %20

10:                                               ; preds = %6
  %11 = load ptr, ptr %3, align 8, !tbaa !27
  %12 = load i32, ptr %5, align 4, !tbaa !3
  %13 = zext i32 %12 to i64
  %14 = getelementptr inbounds nuw %struct.FLAC__StreamMetadata_VorbisComment_Entry, ptr %11, i64 %13
  %15 = getelementptr inbounds nuw %struct.FLAC__StreamMetadata_VorbisComment_Entry, ptr %14, i32 0, i32 1
  %16 = load ptr, ptr %15, align 8, !tbaa !29
  call void @free(ptr noundef %16) #12
  br label %17

17:                                               ; preds = %10
  %18 = load i32, ptr %5, align 4, !tbaa !3
  %19 = add i32 %18, 1
  store i32 %19, ptr %5, align 4, !tbaa !3
  br label %6, !llvm.loop !32

20:                                               ; preds = %6
  %21 = load ptr, ptr %3, align 8, !tbaa !27
  call void @free(ptr noundef %21) #12
  call void @llvm.lifetime.end.p0(i64 4, ptr %5) #12
  ret void
}

; Function Attrs: nounwind sspstrong uwtable
define hidden void @FLAC__metadata_object_delete_data(ptr noundef %0) #0 {
  %2 = alloca ptr, align 8
  store ptr %0, ptr %2, align 8, !tbaa !7
  %3 = load ptr, ptr %2, align 8, !tbaa !7
  %4 = getelementptr inbounds nuw %struct.FLAC__StreamMetadata, ptr %3, i32 0, i32 0
  %5 = load i32, ptr %4, align 8, !tbaa !12
  switch i32 %5, label %141 [
    i32 0, label %6
    i32 1, label %6
    i32 2, label %7
    i32 3, label %22
    i32 4, label %37
    i32 5, label %76
    i32 6, label %98
  ]

6:                                                ; preds = %1, %1
  br label %156

7:                                                ; preds = %1
  %8 = load ptr, ptr %2, align 8, !tbaa !7
  %9 = getelementptr inbounds nuw %struct.FLAC__StreamMetadata, ptr %8, i32 0, i32 3
  %10 = getelementptr inbounds nuw %struct.FLAC__StreamMetadata_Application, ptr %9, i32 0, i32 1
  %11 = load ptr, ptr %10, align 8, !tbaa !16
  %12 = icmp ne ptr %11, null
  br i1 %12, label %13, label %21

13:                                               ; preds = %7
  %14 = load ptr, ptr %2, align 8, !tbaa !7
  %15 = getelementptr inbounds nuw %struct.FLAC__StreamMetadata, ptr %14, i32 0, i32 3
  %16 = getelementptr inbounds nuw %struct.FLAC__StreamMetadata_Application, ptr %15, i32 0, i32 1
  %17 = load ptr, ptr %16, align 8, !tbaa !16
  call void @free(ptr noundef %17) #12
  %18 = load ptr, ptr %2, align 8, !tbaa !7
  %19 = getelementptr inbounds nuw %struct.FLAC__StreamMetadata, ptr %18, i32 0, i32 3
  %20 = getelementptr inbounds nuw %struct.FLAC__StreamMetadata_Application, ptr %19, i32 0, i32 1
  store ptr null, ptr %20, align 8, !tbaa !16
  br label %21

21:                                               ; preds = %13, %7
  br label %156

22:                                               ; preds = %1
  %23 = load ptr, ptr %2, align 8, !tbaa !7
  %24 = getelementptr inbounds nuw %struct.FLAC__StreamMetadata, ptr %23, i32 0, i32 3
  %25 = getelementptr inbounds nuw %struct.FLAC__StreamMetadata_SeekTable, ptr %24, i32 0, i32 1
  %26 = load ptr, ptr %25, align 8, !tbaa !16
  %27 = icmp ne ptr %26, null
  br i1 %27, label %28, label %36

28:                                               ; preds = %22
  %29 = load ptr, ptr %2, align 8, !tbaa !7
  %30 = getelementptr inbounds nuw %struct.FLAC__StreamMetadata, ptr %29, i32 0, i32 3
  %31 = getelementptr inbounds nuw %struct.FLAC__StreamMetadata_SeekTable, ptr %30, i32 0, i32 1
  %32 = load ptr, ptr %31, align 8, !tbaa !16
  call void @free(ptr noundef %32) #12
  %33 = load ptr, ptr %2, align 8, !tbaa !7
  %34 = getelementptr inbounds nuw %struct.FLAC__StreamMetadata, ptr %33, i32 0, i32 3
  %35 = getelementptr inbounds nuw %struct.FLAC__StreamMetadata_SeekTable, ptr %34, i32 0, i32 1
  store ptr null, ptr %35, align 8, !tbaa !16
  br label %36

36:                                               ; preds = %28, %22
  br label %156

37:                                               ; preds = %1
  %38 = load ptr, ptr %2, align 8, !tbaa !7
  %39 = getelementptr inbounds nuw %struct.FLAC__StreamMetadata, ptr %38, i32 0, i32 3
  %40 = getelementptr inbounds nuw %struct.FLAC__StreamMetadata_VorbisComment, ptr %39, i32 0, i32 0
  %41 = getelementptr inbounds nuw %struct.FLAC__StreamMetadata_VorbisComment_Entry, ptr %40, i32 0, i32 1
  %42 = load ptr, ptr %41, align 8, !tbaa !16
  %43 = icmp ne ptr %42, null
  br i1 %43, label %44, label %54

44:                                               ; preds = %37
  %45 = load ptr, ptr %2, align 8, !tbaa !7
  %46 = getelementptr inbounds nuw %struct.FLAC__StreamMetadata, ptr %45, i32 0, i32 3
  %47 = getelementptr inbounds nuw %struct.FLAC__StreamMetadata_VorbisComment, ptr %46, i32 0, i32 0
  %48 = getelementptr inbounds nuw %struct.FLAC__StreamMetadata_VorbisComment_Entry, ptr %47, i32 0, i32 1
  %49 = load ptr, ptr %48, align 8, !tbaa !16
  call void @free(ptr noundef %49) #12
  %50 = load ptr, ptr %2, align 8, !tbaa !7
  %51 = getelementptr inbounds nuw %struct.FLAC__StreamMetadata, ptr %50, i32 0, i32 3
  %52 = getelementptr inbounds nuw %struct.FLAC__StreamMetadata_VorbisComment, ptr %51, i32 0, i32 0
  %53 = getelementptr inbounds nuw %struct.FLAC__StreamMetadata_VorbisComment_Entry, ptr %52, i32 0, i32 1
  store ptr null, ptr %53, align 8, !tbaa !16
  br label %54

54:                                               ; preds = %44, %37
  %55 = load ptr, ptr %2, align 8, !tbaa !7
  %56 = getelementptr inbounds nuw %struct.FLAC__StreamMetadata, ptr %55, i32 0, i32 3
  %57 = getelementptr inbounds nuw %struct.FLAC__StreamMetadata_VorbisComment, ptr %56, i32 0, i32 2
  %58 = load ptr, ptr %57, align 8, !tbaa !16
  %59 = icmp ne ptr %58, null
  br i1 %59, label %60, label %75

60:                                               ; preds = %54
  %61 = load ptr, ptr %2, align 8, !tbaa !7
  %62 = getelementptr inbounds nuw %struct.FLAC__StreamMetadata, ptr %61, i32 0, i32 3
  %63 = getelementptr inbounds nuw %struct.FLAC__StreamMetadata_VorbisComment, ptr %62, i32 0, i32 2
  %64 = load ptr, ptr %63, align 8, !tbaa !16
  %65 = load ptr, ptr %2, align 8, !tbaa !7
  %66 = getelementptr inbounds nuw %struct.FLAC__StreamMetadata, ptr %65, i32 0, i32 3
  %67 = getelementptr inbounds nuw %struct.FLAC__StreamMetadata_VorbisComment, ptr %66, i32 0, i32 1
  %68 = load i32, ptr %67, align 8, !tbaa !16
  call void @vorbiscomment_entry_array_delete_(ptr noundef %64, i32 noundef %68)
  %69 = load ptr, ptr %2, align 8, !tbaa !7
  %70 = getelementptr inbounds nuw %struct.FLAC__StreamMetadata, ptr %69, i32 0, i32 3
  %71 = getelementptr inbounds nuw %struct.FLAC__StreamMetadata_VorbisComment, ptr %70, i32 0, i32 2
  store ptr null, ptr %71, align 8, !tbaa !16
  %72 = load ptr, ptr %2, align 8, !tbaa !7
  %73 = getelementptr inbounds nuw %struct.FLAC__StreamMetadata, ptr %72, i32 0, i32 3
  %74 = getelementptr inbounds nuw %struct.FLAC__StreamMetadata_VorbisComment, ptr %73, i32 0, i32 1
  store i32 0, ptr %74, align 8, !tbaa !16
  br label %75

75:                                               ; preds = %60, %54
  br label %156

76:                                               ; preds = %1
  %77 = load ptr, ptr %2, align 8, !tbaa !7
  %78 = getelementptr inbounds nuw %struct.FLAC__StreamMetadata, ptr %77, i32 0, i32 3
  %79 = getelementptr inbounds nuw %struct.FLAC__StreamMetadata_CueSheet, ptr %78, i32 0, i32 4
  %80 = load ptr, ptr %79, align 8, !tbaa !16
  %81 = icmp ne ptr %80, null
  br i1 %81, label %82, label %97

82:                                               ; preds = %76
  %83 = load ptr, ptr %2, align 8, !tbaa !7
  %84 = getelementptr inbounds nuw %struct.FLAC__StreamMetadata, ptr %83, i32 0, i32 3
  %85 = getelementptr inbounds nuw %struct.FLAC__StreamMetadata_CueSheet, ptr %84, i32 0, i32 4
  %86 = load ptr, ptr %85, align 8, !tbaa !16
  %87 = load ptr, ptr %2, align 8, !tbaa !7
  %88 = getelementptr inbounds nuw %struct.FLAC__StreamMetadata, ptr %87, i32 0, i32 3
  %89 = getelementptr inbounds nuw %struct.FLAC__StreamMetadata_CueSheet, ptr %88, i32 0, i32 3
  %90 = load i32, ptr %89, align 4, !tbaa !16
  call void @cuesheet_track_array_delete_(ptr noundef %86, i32 noundef %90)
  %91 = load ptr, ptr %2, align 8, !tbaa !7
  %92 = getelementptr inbounds nuw %struct.FLAC__StreamMetadata, ptr %91, i32 0, i32 3
  %93 = getelementptr inbounds nuw %struct.FLAC__StreamMetadata_CueSheet, ptr %92, i32 0, i32 4
  store ptr null, ptr %93, align 8, !tbaa !16
  %94 = load ptr, ptr %2, align 8, !tbaa !7
  %95 = getelementptr inbounds nuw %struct.FLAC__StreamMetadata, ptr %94, i32 0, i32 3
  %96 = getelementptr inbounds nuw %struct.FLAC__StreamMetadata_CueSheet, ptr %95, i32 0, i32 3
  store i32 0, ptr %96, align 4, !tbaa !16
  br label %97

97:                                               ; preds = %82, %76
  br label %156

98:                                               ; preds = %1
  %99 = load ptr, ptr %2, align 8, !tbaa !7
  %100 = getelementptr inbounds nuw %struct.FLAC__StreamMetadata, ptr %99, i32 0, i32 3
  %101 = getelementptr inbounds nuw %struct.FLAC__StreamMetadata_Picture, ptr %100, i32 0, i32 1
  %102 = load ptr, ptr %101, align 8, !tbaa !16
  %103 = icmp ne ptr %102, null
  br i1 %103, label %104, label %112

104:                                              ; preds = %98
  %105 = load ptr, ptr %2, align 8, !tbaa !7
  %106 = getelementptr inbounds nuw %struct.FLAC__StreamMetadata, ptr %105, i32 0, i32 3
  %107 = getelementptr inbounds nuw %struct.FLAC__StreamMetadata_Picture, ptr %106, i32 0, i32 1
  %108 = load ptr, ptr %107, align 8, !tbaa !16
  call void @free(ptr noundef %108) #12
  %109 = load ptr, ptr %2, align 8, !tbaa !7
  %110 = getelementptr inbounds nuw %struct.FLAC__StreamMetadata, ptr %109, i32 0, i32 3
  %111 = getelementptr inbounds nuw %struct.FLAC__StreamMetadata_Picture, ptr %110, i32 0, i32 1
  store ptr null, ptr %111, align 8, !tbaa !16
  br label %112

112:                                              ; preds = %104, %98
  %113 = load ptr, ptr %2, align 8, !tbaa !7
  %114 = getelementptr inbounds nuw %struct.FLAC__StreamMetadata, ptr %113, i32 0, i32 3
  %115 = getelementptr inbounds nuw %struct.FLAC__StreamMetadata_Picture, ptr %114, i32 0, i32 2
  %116 = load ptr, ptr %115, align 8, !tbaa !16
  %117 = icmp ne ptr %116, null
  br i1 %117, label %118, label %126

118:                                              ; preds = %112
  %119 = load ptr, ptr %2, align 8, !tbaa !7
  %120 = getelementptr inbounds nuw %struct.FLAC__StreamMetadata, ptr %119, i32 0, i32 3
  %121 = getelementptr inbounds nuw %struct.FLAC__StreamMetadata_Picture, ptr %120, i32 0, i32 2
  %122 = load ptr, ptr %121, align 8, !tbaa !16
  call void @free(ptr noundef %122) #12
  %123 = load ptr, ptr %2, align 8, !tbaa !7
  %124 = getelementptr inbounds nuw %struct.FLAC__StreamMetadata, ptr %123, i32 0, i32 3
  %125 = getelementptr inbounds nuw %struct.FLAC__StreamMetadata_Picture, ptr %124, i32 0, i32 2
  store ptr null, ptr %125, align 8, !tbaa !16
  br label %126

126:                                              ; preds = %118, %112
  %127 = load ptr, ptr %2, align 8, !tbaa !7
  %128 = getelementptr inbounds nuw %struct.FLAC__StreamMetadata, ptr %127, i32 0, i32 3
  %129 = getelementptr inbounds nuw %struct.FLAC__StreamMetadata_Picture, ptr %128, i32 0, i32 8
  %130 = load ptr, ptr %129, align 8, !tbaa !16
  %131 = icmp ne ptr %130, null
  br i1 %131, label %132, label %140

132:                                              ; preds = %126
  %133 = load ptr, ptr %2, align 8, !tbaa !7
  %134 = getelementptr inbounds nuw %struct.FLAC__StreamMetadata, ptr %133, i32 0, i32 3
  %135 = getelementptr inbounds nuw %struct.FLAC__StreamMetadata_Picture, ptr %134, i32 0, i32 8
  %136 = load ptr, ptr %135, align 8, !tbaa !16
  call void @free(ptr noundef %136) #12
  %137 = load ptr, ptr %2, align 8, !tbaa !7
  %138 = getelementptr inbounds nuw %struct.FLAC__StreamMetadata, ptr %137, i32 0, i32 3
  %139 = getelementptr inbounds nuw %struct.FLAC__StreamMetadata_Picture, ptr %138, i32 0, i32 8
  store ptr null, ptr %139, align 8, !tbaa !16
  br label %140

140:                                              ; preds = %132, %126
  br label %156

141:                                              ; preds = %1
  %142 = load ptr, ptr %2, align 8, !tbaa !7
  %143 = getelementptr inbounds nuw %struct.FLAC__StreamMetadata, ptr %142, i32 0, i32 3
  %144 = getelementptr inbounds nuw %struct.FLAC__StreamMetadata_Unknown, ptr %143, i32 0, i32 0
  %145 = load ptr, ptr %144, align 8, !tbaa !16
  %146 = icmp ne ptr %145, null
  br i1 %146, label %147, label %155

147:                                              ; preds = %141
  %148 = load ptr, ptr %2, align 8, !tbaa !7
  %149 = getelementptr inbounds nuw %struct.FLAC__StreamMetadata, ptr %148, i32 0, i32 3
  %150 = getelementptr inbounds nuw %struct.FLAC__StreamMetadata_Unknown, ptr %149, i32 0, i32 0
  %151 = load ptr, ptr %150, align 8, !tbaa !16
  call void @free(ptr noundef %151) #12
  %152 = load ptr, ptr %2, align 8, !tbaa !7
  %153 = getelementptr inbounds nuw %struct.FLAC__StreamMetadata, ptr %152, i32 0, i32 3
  %154 = getelementptr inbounds nuw %struct.FLAC__StreamMetadata_Unknown, ptr %153, i32 0, i32 0
  store ptr null, ptr %154, align 8, !tbaa !16
  br label %155

155:                                              ; preds = %147, %141
  br label %156

156:                                              ; preds = %155, %140, %97, %75, %36, %21, %6
  ret void
}