; Function Attrs: nounwind sspstrong uwtable
define hidden void @FLAC__metadata_object_delete_data(ptr noundef captures(none) %0) local_unnamed_addr #5 {
  %2 = load i32, ptr %0, align 8, !tbaa !3
  switch i32 %2, label %45 [
    i32 0, label %49
    i32 1, label %49
    i32 2, label %3
    i32 3, label %7
    i32 4, label %11
    i32 5, label %23
    i32 6, label %33
  ]

3:                                                ; preds = %1
  %4 = getelementptr inbounds nuw i8, ptr %0, i64 24
  %5 = load ptr, ptr %4, align 8, !tbaa !13
  %.not46 = icmp eq ptr %5, null
  br i1 %.not46, label %49, label %6

6:                                                ; preds = %3
  tail call void @free(ptr noundef nonnull %5) #31
  store ptr null, ptr %4, align 8, !tbaa !13
  br label %49

7:                                                ; preds = %1
  %8 = getelementptr inbounds nuw i8, ptr %0, i64 24
  %9 = load ptr, ptr %8, align 8, !tbaa !13
  %.not45 = icmp eq ptr %9, null
  br i1 %.not45, label %49, label %10

10:                                               ; preds = %7
  tail call void @free(ptr noundef nonnull %9) #31
  store ptr null, ptr %8, align 8, !tbaa !13
  br label %49

11:                                               ; preds = %1
  %12 = getelementptr inbounds nuw i8, ptr %0, i64 24
  %13 = load ptr, ptr %12, align 8, !tbaa !13
  %.not43 = icmp eq ptr %13, null
  br i1 %.not43, label %15, label %14

14:                                               ; preds = %11
  tail call void @free(ptr noundef nonnull %13) #31
  store ptr null, ptr %12, align 8, !tbaa !13
  br label %15

15:                                               ; preds = %14, %11
  %16 = getelementptr inbounds nuw i8, ptr %0, i64 40
  %17 = load ptr, ptr %16, align 8, !tbaa !13
  %.not44 = icmp eq ptr %17, null
  br i1 %.not44, label %49, label %18

18:                                               ; preds = %15
  %19 = getelementptr inbounds nuw i8, ptr %0, i64 32
  %20 = load i32, ptr %19, align 8, !tbaa !13
  %.not.i = icmp eq i32 %20, 0
  br i1 %.not.i, label %vorbiscomment_entry_array_delete_.exit, label %.lr.ph.preheader.i

.lr.ph.preheader.i:                               ; preds = %18
  %wide.trip.count.i = zext i32 %20 to i64
  br label %.lr.ph.i

.lr.ph.i:                                         ; preds = %.lr.ph.i, %.lr.ph.preheader.i
  %indvars.iv.i = phi i64 [ 0, %.lr.ph.preheader.i ], [ %indvars.iv.next.i, %.lr.ph.i ]
  %21 = getelementptr inbounds nuw %struct.FLAC__StreamMetadata_VorbisComment_Entry, ptr %17, i64 %indvars.iv.i, i32 1
  %22 = load ptr, ptr %21, align 8, !tbaa !17
  tail call void @free(ptr noundef %22) #31
  %indvars.iv.next.i = add nuw nsw i64 %indvars.iv.i, 1
  %exitcond.not.i = icmp eq i64 %indvars.iv.next.i, %wide.trip.count.i
  br i1 %exitcond.not.i, label %vorbiscomment_entry_array_delete_.exit, label %.lr.ph.i, !llvm.loop !18

vorbiscomment_entry_array_delete_.exit:           ; preds = %.lr.ph.i, %18
  tail call void @free(ptr noundef nonnull %17) #31
  store ptr null, ptr %16, align 8, !tbaa !13
  store i32 0, ptr %19, align 8, !tbaa !13
  br label %49

23:                                               ; preds = %1
  %24 = getelementptr inbounds nuw i8, ptr %0, i64 168
  %25 = load ptr, ptr %24, align 8, !tbaa !13
  %.not42 = icmp eq ptr %25, null
  br i1 %.not42, label %49, label %26

26:                                               ; preds = %23
  %27 = getelementptr inbounds nuw i8, ptr %0, i64 164
  %28 = load i32, ptr %27, align 4, !tbaa !13
  %.not9.i = icmp eq i32 %28, 0
  br i1 %.not9.i, label %cuesheet_track_array_delete_.exit, label %.lr.ph.preheader.i48

.lr.ph.preheader.i48:                             ; preds = %26
  %wide.trip.count.i49 = zext i32 %28 to i64
  br label %.lr.ph.i50

.lr.ph.i50:                                       ; preds = %32, %.lr.ph.preheader.i48
  %indvars.iv.i51 = phi i64 [ 0, %.lr.ph.preheader.i48 ], [ %indvars.iv.next.i53, %32 ]
  %29 = getelementptr inbounds nuw %struct.FLAC__StreamMetadata_CueSheet_Track, ptr %25, i64 %indvars.iv.i51, i32 5
  %30 = load ptr, ptr %29, align 8, !tbaa !21
  %.not.i52 = icmp eq ptr %30, null
  br i1 %.not.i52, label %32, label %31

31:                                               ; preds = %.lr.ph.i50
  tail call void @free(ptr noundef nonnull %30) #31
  br label %32

32:                                               ; preds = %31, %.lr.ph.i50
  %indvars.iv.next.i53 = add nuw nsw i64 %indvars.iv.i51, 1
  %exitcond.not.i54 = icmp eq i64 %indvars.iv.next.i53, %wide.trip.count.i49
  br i1 %exitcond.not.i54, label %cuesheet_track_array_delete_.exit, label %.lr.ph.i50, !llvm.loop !25

cuesheet_track_array_delete_.exit:                ; preds = %32, %26
  tail call void @free(ptr noundef nonnull %25) #31
  store ptr null, ptr %24, align 8, !tbaa !13
  store i32 0, ptr %27, align 4, !tbaa !13
  br label %49

33:                                               ; preds = %1
  %34 = getelementptr inbounds nuw i8, ptr %0, i64 24
  %35 = load ptr, ptr %34, align 8, !tbaa !13
  %.not = icmp eq ptr %35, null
  br i1 %.not, label %37, label %36

36:                                               ; preds = %33
  tail call void @free(ptr noundef nonnull %35) #31
  store ptr null, ptr %34, align 8, !tbaa !13
  br label %37

37:                                               ; preds = %36, %33
  %38 = getelementptr inbounds nuw i8, ptr %0, i64 32
  %39 = load ptr, ptr %38, align 8, !tbaa !13
  %.not40 = icmp eq ptr %39, null
  br i1 %.not40, label %41, label %40

40:                                               ; preds = %37
  tail call void @free(ptr noundef nonnull %39) #31
  store ptr null, ptr %38, align 8, !tbaa !13
  br label %41

41:                                               ; preds = %40, %37
  %42 = getelementptr inbounds nuw i8, ptr %0, i64 64
  %43 = load ptr, ptr %42, align 8, !tbaa !13
  %.not41 = icmp eq ptr %43, null
  br i1 %.not41, label %49, label %44

44:                                               ; preds = %41
  tail call void @free(ptr noundef nonnull %43) #31
  store ptr null, ptr %42, align 8, !tbaa !13
  br label %49

45:                                               ; preds = %1
  %46 = getelementptr inbounds nuw i8, ptr %0, i64 16
  %47 = load ptr, ptr %46, align 8, !tbaa !13
  %.not47 = icmp eq ptr %47, null
  br i1 %.not47, label %49, label %48

48:                                               ; preds = %45
  tail call void @free(ptr noundef nonnull %47) #31
  store ptr null, ptr %46, align 8, !tbaa !13
  br label %49

49:                                               ; preds = %45, %48, %41, %44, %23, %cuesheet_track_array_delete_.exit, %15, %vorbiscomment_entry_array_delete_.exit, %7, %10, %3, %6, %1, %1
  ret void
}